target datalayout = "e-m:e-p270:32:32-p271:32:32-p272:64:64-i64:64-i128:128-f80:128-n8:16:32:64-S128"
target triple = "x86_64-unknown-linux-gnu"

%"class.std::__cxx11::basic_string" = type { %"struct.std::__cxx11::basic_string<char>::_Alloc_hider", i64, %union.anon }
%"struct.std::__cxx11::basic_string<char>::_Alloc_hider" = type { ptr }
%union.anon = type { i64, [8 x i8] }
%"class.std::__cxx11::basic_ostringstream" = type { %"class.std::basic_ostream.base", %"class.std::__cxx11::basic_stringbuf", %"class.std::basic_ios" }
%"class.std::basic_ostream.base" = type { ptr }
%"class.std::__cxx11::basic_stringbuf" = type { %"class.std::basic_streambuf", i32, %"class.std::__cxx11::basic_string" }
%"class.std::basic_streambuf" = type { ptr, ptr, ptr, ptr, ptr, ptr, ptr, %"class.std::locale" }
%"class.std::locale" = type { ptr }
%"class.std::basic_ios" = type { %"class.std::ios_base", ptr, i8, i8, ptr, ptr, ptr, ptr }
%"class.std::ios_base" = type { ptr, i64, i64, i32, i32, i32, ptr, %"struct.std::ios_base::_Words", [8 x %"struct.std::ios_base::_Words"], i32, ptr, %"class.std::locale" }
%"struct.std::ios_base::_Words" = type { ptr, i64 }
%class.zstring = type { %class.buffer.56 }
%class.buffer.56 = type { ptr, i32, i32, [16 x %"union.std::aligned_storage<4, 4>::type"] }
%"union.std::aligned_storage<4, 4>::type" = type { [4 x i8] }
%class.seq_util = type { ptr, ptr, ptr, i32, [4 x i8], %"class.seq_util::str", %"class.seq_util::rex" }
%"class.seq_util::str" = type <{ ptr, ptr, i32, [4 x i8] }>
%"class.seq_util::rex" = type { ptr, ptr, i32, %class.vector.58, %class.ref_vector, %"struct.seq_util::rex::info", %"struct.seq_util::rex::info" }
%class.vector.58 = type { ptr }
%class.ref_vector = type { %class.ref_vector_core }
%class.ref_vector_core = type { %class.ref_manager_wrapper, %class.ptr_vector.59 }
%class.ref_manager_wrapper = type { ptr }
%class.ptr_vector.59 = type { %class.vector.60 }
%class.vector.60 = type { ptr }
%"struct.seq_util::rex::info" = type { i32, i8, i32, i32 }

@.str.9 = private unnamed_addr constant [107 x i8] c"generated/home/dtcxzyw/WorkSpace/Projects/compilers/llvm-opt-benchmark/bench/z3/z3/src/ast/ast_smt2_pp.cpp\00", align 1
@.str.25 = private unnamed_addr constant [51 x i8] c"Failed to verify: get_sutil().str.is_string(t, s)\0A\00", align 1
@.str.26 = private unnamed_addr constant [2 x i8] c"\22\00", align 1
@.str.27 = private unnamed_addr constant [3 x i8] c"\22\22\00", align 1

; Function Attrs: mustprogress nounwind uwtable
define linkonce_odr hidden void @_ZN6bufferIjLb1ELj16EEC2Ev(ptr noundef nonnull align 8 dereferenceable(80) %this) unnamed_addr #5 comdat align 2 {
entry:
  %this.addr = alloca ptr, align 8
  store ptr %this, ptr %this.addr, align 8
  %this1 = load ptr, ptr %this.addr, align 8
  %m_buffer = getelementptr inbounds %class.buffer.56, ptr %this1, i32 0, i32 0
  %m_initial_buffer = getelementptr inbounds %class.buffer.56, ptr %this1, i32 0, i32 3
  %arraydecay = getelementptr inbounds [16 x %"union.std::aligned_storage<4, 4>::type"], ptr %m_initial_buffer, i64 0, i64 0
  store ptr %arraydecay, ptr %m_buffer, align 8
  %m_pos = getelementptr inbounds %class.buffer.56, ptr %this1, i32 0, i32 1
  store i32 0, ptr %m_pos, align 8
  %m_capacity = getelementptr inbounds %class.buffer.56, ptr %this1, i32 0, i32 2
  store i32 16, ptr %m_capacity, align 4
  ret void
}

; Function Attrs: mustprogress uwtable
define internal noundef ptr @_ZN9format_nsL9mk_stringER11ast_managerRKNSt7__cxx1112basic_stringIcSt11char_traitsIcESaIcEEE(ptr noundef nonnull align 8 dereferenceable(976) %m, ptr noundef nonnull align 8 dereferenceable(32) %str) #4 {
entry:
  %m.addr = alloca ptr, align 8
  %str.addr = alloca ptr, align 8
  store ptr %m, ptr %m.addr, align 8
  store ptr %str, ptr %str.addr, align 8
  %0 = load ptr, ptr %m.addr, align 8
  %1 = load ptr, ptr %str.addr, align 8
  %call = call noundef ptr @_ZNKSt7__cxx1112basic_stringIcSt11char_traitsIcESaIcEE5c_strEv(ptr noundef nonnull align 8 dereferenceable(32) %1) #3
  %call1 = call noundef ptr @_ZN9format_ns9mk_stringER11ast_managerPKc(ptr noundef nonnull align 8 dereferenceable(976) %0, ptr noundef %call)
  ret ptr %call1
}

; Function Attrs: mustprogress nounwind uwtable
define linkonce_odr hidden void @_ZN7zstringC2Ev(ptr noundef nonnull align 8 dereferenceable(80) %this) unnamed_addr #5 comdat align 2 {
entry:
  %this.addr = alloca ptr, align 8
  store ptr %this, ptr %this.addr, align 8
  %this1 = load ptr, ptr %this.addr, align 8
  %m_buffer = getelementptr inbounds %class.zstring, ptr %this1, i32 0, i32 0
  call void @_ZN6bufferIjLb1ELj16EEC2Ev(ptr noundef nonnull align 8 dereferenceable(80) %m_buffer) #3
  ret void
}

; Function Attrs: mustprogress uwtable
define hidden noundef ptr @_ZN19smt2_pp_environment17pp_string_literalEP3app(ptr noundef nonnull align 8 dereferenceable(56) %this, ptr noundef %t) unnamed_addr #4 align 2 personality ptr @__gxx_personality_v0 {
entry:
  %this.addr = alloca ptr, align 8
  %t.addr = alloca ptr, align 8
  %s = alloca %class.zstring, align 8
  %encs = alloca %"class.std::__cxx11::basic_string", align 8
  %exn.slot = alloca ptr, align 8
  %ehselector.slot = alloca i32, align 4
  %ref.tmp = alloca %"class.std::__cxx11::basic_string", align 8
  %buffer = alloca %"class.std::__cxx11::basic_ostringstream", align 8
  %i = alloca i32, align 4
  %ref.tmp32 = alloca %"class.std::__cxx11::basic_string", align 8
  store ptr %this, ptr %this.addr, align 8
  store ptr %t, ptr %t.addr, align 8
  %this1 = load ptr, ptr %this.addr, align 8
  call void @_ZN7zstringC2Ev(ptr noundef nonnull align 8 dereferenceable(80) %s) #3
  call void @_ZNSt7__cxx1112basic_stringIcSt11char_traitsIcESaIcEEC1Ev(ptr noundef nonnull align 8 dereferenceable(32) %encs) #3
  %vtable = load ptr, ptr %this1, align 8
  %vfn = getelementptr inbounds ptr, ptr %vtable, i64 7
  %0 = load ptr, ptr %vfn, align 8
  %call = invoke noundef nonnull align 8 dereferenceable(136) ptr %0(ptr noundef nonnull align 8 dereferenceable(56) %this1)
          to label %invoke.cont unwind label %lpad

invoke.cont:                                      ; preds = %entry
  %str = getelementptr inbounds %class.seq_util, ptr %call, i32 0, i32 5
  %1 = load ptr, ptr %t.addr, align 8
  %call3 = invoke noundef zeroext i1 @_ZNK8seq_util3str9is_stringEPK4exprR7zstring(ptr noundef nonnull align 8 dereferenceable(20) %str, ptr noundef %1, ptr noundef nonnull align 8 dereferenceable(80) %s)
          to label %invoke.cont2 unwind label %lpad

invoke.cont2:                                     ; preds = %invoke.cont
  br i1 %call3, label %if.end, label %if.then

if.then:                                          ; preds = %invoke.cont2
  invoke void @_Z26notify_assertion_violationPKciS0_(ptr noundef @.str.9, i32 noundef 377, ptr noundef @.str.25)
          to label %invoke.cont4 unwind label %lpad

invoke.cont4:                                     ; preds = %if.then
  call void @exit(i32 noundef 114) #16
  unreachable

lpad:                                             ; preds = %invoke.cont5, %if.end, %if.then, %invoke.cont, %entry
  %2 = landingpad { ptr, i32 }
          cleanup
  %3 = extractvalue { ptr, i32 } %2, 0
  store ptr %3, ptr %exn.slot, align 8
  %4 = extractvalue { ptr, i32 } %2, 1
  store i32 %4, ptr %ehselector.slot, align 4
  br label %ehcleanup37

if.end:                                           ; preds = %invoke.cont2
  invoke void @_ZNK7zstring6encodeB5cxx11Ev(ptr sret(%"class.std::__cxx11::basic_string") align 8 %ref.tmp, ptr noundef nonnull align 8 dereferenceable(80) %s)
          to label %invoke.cont5 unwind label %lpad

invoke.cont5:                                     ; preds = %if.end
  %call6 = call noundef nonnull align 8 dereferenceable(32) ptr @_ZNSt7__cxx1112basic_stringIcSt11char_traitsIcESaIcEEaSEOS4_(ptr noundef nonnull align 8 dereferenceable(32) %encs, ptr noundef nonnull align 8 dereferenceable(32) %ref.tmp) #3
  call void @_ZNSt7__cxx1112basic_stringIcSt11char_traitsIcESaIcEED1Ev(ptr noundef nonnull align 8 dereferenceable(32) %ref.tmp) #3
  invoke void @_ZNSt7__cxx1119basic_ostringstreamIcSt11char_traitsIcESaIcEEC1Ev(ptr noundef nonnull align 8 dereferenceable(112) %buffer)
          to label %invoke.cont7 unwind label %lpad

invoke.cont7:                                     ; preds = %invoke.cont5
  %call10 = invoke noundef nonnull align 8 dereferenceable(8) ptr @_ZStlsISt11char_traitsIcEERSt13basic_ostreamIcT_ES5_PKc(ptr noundef nonnull align 8 dereferenceable(8) %buffer, ptr noundef @.str.26)
          to label %invoke.cont9 unwind label %lpad8

invoke.cont9:                                     ; preds = %invoke.cont7
  store i32 0, ptr %i, align 4
  br label %for.cond

for.cond:                                         ; preds = %for.inc, %invoke.cont9
  %5 = load i32, ptr %i, align 4
  %conv = zext i32 %5 to i64
  %call11 = call noundef i64 @_ZNKSt7__cxx1112basic_stringIcSt11char_traitsIcESaIcEE6lengthEv(ptr noundef nonnull align 8 dereferenceable(32) %encs) #3
  %cmp = icmp ult i64 %conv, %call11
  br i1 %cmp, label %for.body, label %for.end

for.body:                                         ; preds = %for.cond
  %6 = load i32, ptr %i, align 4
  %conv12 = zext i32 %6 to i64
  %call14 = invoke noundef nonnull align 1 dereferenceable(1) ptr @_ZNSt7__cxx1112basic_stringIcSt11char_traitsIcESaIcEEixEm(ptr noundef nonnull align 8 dereferenceable(32) %encs, i64 noundef %conv12)
          to label %invoke.cont13 unwind label %lpad8

invoke.cont13:                                    ; preds = %for.body
  %7 = load i8, ptr %call14, align 1
  %conv15 = sext i8 %7 to i32
  %cmp16 = icmp eq i32 %conv15, 34
  br i1 %cmp16, label %if.then17, label %if.else

if.then17:                                        ; preds = %invoke.cont13
  %call19 = invoke noundef nonnull align 8 dereferenceable(8) ptr @_ZStlsISt11char_traitsIcEERSt13basic_ostreamIcT_ES5_PKc(ptr noundef nonnull align 8 dereferenceable(8) %buffer, ptr noundef @.str.27)
          to label %invoke.cont18 unwind label %lpad8

invoke.cont18:                                    ; preds = %if.then17
  br label %if.end25

lpad8:                                            ; preds = %invoke.cont30, %invoke.cont26, %for.end, %invoke.cont21, %if.else, %if.then17, %for.body, %invoke.cont7
  %8 = landingpad { ptr, i32 }
          cleanup
  %9 = extractvalue { ptr, i32 } %8, 0
  store ptr %9, ptr %exn.slot, align 8
  %10 = extractvalue { ptr, i32 } %8, 1
  store i32 %10, ptr %ehselector.slot, align 4
  br label %ehcleanup

if.else:                                          ; preds = %invoke.cont13
  %11 = load i32, ptr %i, align 4
  %conv20 = zext i32 %11 to i64
  %call22 = invoke noundef nonnull align 1 dereferenceable(1) ptr @_ZNSt7__cxx1112basic_stringIcSt11char_traitsIcESaIcEEixEm(ptr noundef nonnull align 8 dereferenceable(32) %encs, i64 noundef %conv20)
          to label %invoke.cont21 unwind label %lpad8

invoke.cont21:                                    ; preds = %if.else
  %12 = load i8, ptr %call22, align 1
  %call24 = invoke noundef nonnull align 8 dereferenceable(8) ptr @_ZStlsISt11char_traitsIcEERSt13basic_ostreamIcT_ES5_c(ptr noundef nonnull align 8 dereferenceable(8) %buffer, i8 noundef signext %12)
          to label %invoke.cont23 unwind label %lpad8

invoke.cont23:                                    ; preds = %invoke.cont21
  br label %if.end25

if.end25:                                         ; preds = %invoke.cont23, %invoke.cont18
  br label %for.inc

for.inc:                                          ; preds = %if.end25
  %13 = load i32, ptr %i, align 4
  %inc = add i32 %13, 1
  store i32 %inc, ptr %i, align 4
  br label %for.cond, !llvm.loop !12

for.end:                                          ; preds = %for.cond
  %call27 = invoke noundef nonnull align 8 dereferenceable(8) ptr @_ZStlsISt11char_traitsIcEERSt13basic_ostreamIcT_ES5_c(ptr noundef nonnull align 8 dereferenceable(8) %buffer, i8 noundef signext 34)
          to label %invoke.cont26 unwind label %lpad8

invoke.cont26:                                    ; preds = %for.end
  %vtable28 = load ptr, ptr %this1, align 8
  %vfn29 = getelementptr inbounds ptr, ptr %vtable28, i64 2
  %14 = load ptr, ptr %vfn29, align 8
  %call31 = invoke noundef nonnull align 8 dereferenceable(976) ptr %14(ptr noundef nonnull align 8 dereferenceable(56) %this1)
          to label %invoke.cont30 unwind label %lpad8

invoke.cont30:                                    ; preds = %invoke.cont26
  invoke void @_ZNKSt7__cxx1119basic_ostringstreamIcSt11char_traitsIcESaIcEE3strEv(ptr sret(%"class.std::__cxx11::basic_string") align 8 %ref.tmp32, ptr noundef nonnull align 8 dereferenceable(112) %buffer)
          to label %invoke.cont33 unwind label %lpad8

invoke.cont33:                                    ; preds = %invoke.cont30
  %call36 = invoke noundef ptr @_ZN9format_nsL9mk_stringER11ast_managerRKNSt7__cxx1112basic_stringIcSt11char_traitsIcESaIcEEE(ptr noundef nonnull align 8 dereferenceable(976) %call31, ptr noundef nonnull align 8 dereferenceable(32) %ref.tmp32)
          to label %invoke.cont35 unwind label %lpad34

invoke.cont35:                                    ; preds = %invoke.cont33
  call void @_ZNSt7__cxx1112basic_stringIcSt11char_traitsIcESaIcEED1Ev(ptr noundef nonnull align 8 dereferenceable(32) %ref.tmp32) #3
  call void @_ZNSt7__cxx1119basic_ostringstreamIcSt11char_traitsIcESaIcEED1Ev(ptr noundef nonnull align 8 dereferenceable(112) %buffer) #3
  call void @_ZNSt7__cxx1112basic_stringIcSt11char_traitsIcESaIcEED1Ev(ptr noundef nonnull align 8 dereferenceable(32) %encs) #3
  call void @_ZN7zstringD2Ev(ptr noundef nonnull align 8 dereferenceable(80) %s) #3
  ret ptr %call36

lpad34:                                           ; preds = %invoke.cont33
  %15 = landingpad { ptr, i32 }
          cleanup
  %16 = extractvalue { ptr, i32 } %15, 0
  store ptr %16, ptr %exn.slot, align 8
  %17 = extractvalue { ptr, i32 } %15, 1
  store i32 %17, ptr %ehselector.slot, align 4
  call void @_ZNSt7__cxx1112basic_stringIcSt11char_traitsIcESaIcEED1Ev(ptr noundef nonnull align 8 dereferenceable(32) %ref.tmp32) #3
  br label %ehcleanup

ehcleanup:                                        ; preds = %lpad34, %lpad8
  call void @_ZNSt7__cxx1119basic_ostringstreamIcSt11char_traitsIcESaIcEED1Ev(ptr noundef nonnull align 8 dereferenceable(112) %buffer) #3
  br label %ehcleanup37

ehcleanup37:                                      ; preds = %ehcleanup, %lpad
  call void @_ZNSt7__cxx1112basic_stringIcSt11char_traitsIcESaIcEED1Ev(ptr noundef nonnull align 8 dereferenceable(32) %encs) #3
  call void @_ZN7zstringD2Ev(ptr noundef nonnull align 8 dereferenceable(80) %s) #3
  br label %eh.resume

eh.resume:                                        ; preds = %ehcleanup37
  %exn = load ptr, ptr %exn.slot, align 8
  %sel = load i32, ptr %ehselector.slot, align 4
  %lpad.val = insertvalue { ptr, i32 } poison, ptr %exn, 0
  %lpad.val39 = insertvalue { ptr, i32 } %lpad.val, i32 %sel, 1
  resume { ptr, i32 } %lpad.val39
}