; Function Attrs: mustprogress uwtable
define hidden noundef ptr @_ZN19smt2_pp_environment17pp_string_literalEP3app(ptr noundef nonnull align 8 dereferenceable(56) %this, ptr noundef %t) unnamed_addr #3 align 2 personality ptr @__gxx_personality_v0 {
entry:
  %s = alloca %class.zstring, align 8
  %encs = alloca %"class.std::__cxx11::basic_string", align 8
  %ref.tmp = alloca %"class.std::__cxx11::basic_string", align 8
  %buffer = alloca %"class.std::__cxx11::basic_ostringstream", align 8
  %ref.tmp32 = alloca %"class.std::__cxx11::basic_string", align 8
  %m_initial_buffer.i.i = getelementptr inbounds i8, ptr %s, i64 16
  store ptr %m_initial_buffer.i.i, ptr %s, align 8
  %m_pos.i.i = getelementptr inbounds i8, ptr %s, i64 8
  store i32 0, ptr %m_pos.i.i, align 8
  %m_capacity.i.i = getelementptr inbounds i8, ptr %s, i64 12
  store i32 16, ptr %m_capacity.i.i, align 4
  call void @_ZNSt7__cxx1112basic_stringIcSt11char_traitsIcESaIcEEC1Ev(ptr noundef nonnull align 8 dereferenceable(32) %encs) #19
  %vtable = load ptr, ptr %this, align 8
  %vfn = getelementptr inbounds i8, ptr %vtable, i64 56
  %0 = load ptr, ptr %vfn, align 8
  %call = invoke noundef nonnull align 8 dereferenceable(136) ptr %0(ptr noundef nonnull align 8 dereferenceable(56) %this)
          to label %invoke.cont unwind label %lpad

invoke.cont:                                      ; preds = %entry
  %str = getelementptr inbounds i8, ptr %call, i64 32
  %call3 = invoke noundef zeroext i1 @_ZNK8seq_util3str9is_stringEPK4exprR7zstring(ptr noundef nonnull align 8 dereferenceable(20) %str, ptr noundef %t, ptr noundef nonnull align 8 dereferenceable(80) %s)
          to label %invoke.cont2 unwind label %lpad

invoke.cont2:                                     ; preds = %invoke.cont
  br i1 %call3, label %if.end, label %if.then

if.then:                                          ; preds = %invoke.cont2
  invoke void @_Z26notify_assertion_violationPKciS0_(ptr noundef nonnull @.str.9, i32 noundef 377, ptr noundef nonnull @.str.25)
          to label %invoke.cont4 unwind label %lpad

invoke.cont4:                                     ; preds = %if.then
  call void @exit(i32 noundef 114) #22
  unreachable

lpad:                                             ; preds = %invoke.cont5, %if.end, %if.then, %invoke.cont, %entry
  %1 = landingpad { ptr, i32 }
          cleanup
  br label %ehcleanup37

if.end:                                           ; preds = %invoke.cont2
  invoke void @_ZNK7zstring6encodeB5cxx11Ev(ptr nonnull sret(%"class.std::__cxx11::basic_string") align 8 %ref.tmp, ptr noundef nonnull align 8 dereferenceable(80) %s)
          to label %invoke.cont5 unwind label %lpad

invoke.cont5:                                     ; preds = %if.end
  %call6 = call noundef nonnull align 8 dereferenceable(32) ptr @_ZNSt7__cxx1112basic_stringIcSt11char_traitsIcESaIcEEaSEOS4_(ptr noundef nonnull align 8 dereferenceable(32) %encs, ptr noundef nonnull align 8 dereferenceable(32) %ref.tmp) #19
  call void @_ZNSt7__cxx1112basic_stringIcSt11char_traitsIcESaIcEED1Ev(ptr noundef nonnull align 8 dereferenceable(32) %ref.tmp) #19
  invoke void @_ZNSt7__cxx1119basic_ostringstreamIcSt11char_traitsIcESaIcEEC1Ev(ptr noundef nonnull align 8 dereferenceable(112) %buffer)
          to label %invoke.cont7 unwind label %lpad

invoke.cont7:                                     ; preds = %invoke.cont5
  %call10 = invoke noundef nonnull align 8 dereferenceable(8) ptr @_ZStlsISt11char_traitsIcEERSt13basic_ostreamIcT_ES5_PKc(ptr noundef nonnull align 8 dereferenceable(8) %buffer, ptr noundef nonnull @.str.26)
          to label %for.cond.preheader unwind label %lpad8.loopexit.split-lp

for.cond.preheader:                               ; preds = %invoke.cont7
  %call117 = call noundef i64 @_ZNKSt7__cxx1112basic_stringIcSt11char_traitsIcESaIcEE6lengthEv(ptr noundef nonnull align 8 dereferenceable(32) %encs) #19
  %cmp8.not = icmp eq i64 %call117, 0
  br i1 %cmp8.not, label %for.end, label %for.body

for.body:                                         ; preds = %for.cond.preheader, %for.inc
  %conv10 = phi i64 [ %conv, %for.inc ], [ 0, %for.cond.preheader ]
  %i.09 = phi i32 [ %inc, %for.inc ], [ 0, %for.cond.preheader ]
  %call14 = invoke noundef nonnull align 1 dereferenceable(1) ptr @_ZNSt7__cxx1112basic_stringIcSt11char_traitsIcESaIcEEixEm(ptr noundef nonnull align 8 dereferenceable(32) %encs, i64 noundef %conv10)
          to label %invoke.cont13 unwind label %lpad8.loopexit

invoke.cont13:                                    ; preds = %for.body
  %2 = load i8, ptr %call14, align 1
  %cmp16 = icmp eq i8 %2, 34
  br i1 %cmp16, label %if.then17, label %if.else

if.then17:                                        ; preds = %invoke.cont13
  %call19 = invoke noundef nonnull align 8 dereferenceable(8) ptr @_ZStlsISt11char_traitsIcEERSt13basic_ostreamIcT_ES5_PKc(ptr noundef nonnull align 8 dereferenceable(8) %buffer, ptr noundef nonnull @.str.27)
          to label %for.inc unwind label %lpad8.loopexit

lpad8.loopexit:                                   ; preds = %for.body, %if.then17, %if.else, %invoke.cont21
  %lpad.loopexit = landingpad { ptr, i32 }
          cleanup
  br label %ehcleanup

lpad8.loopexit.split-lp:                          ; preds = %invoke.cont7, %for.end, %invoke.cont26, %invoke.cont30
  %lpad.loopexit.split-lp = landingpad { ptr, i32 }
          cleanup
  br label %ehcleanup

if.else:                                          ; preds = %invoke.cont13
  %call22 = invoke noundef nonnull align 1 dereferenceable(1) ptr @_ZNSt7__cxx1112basic_stringIcSt11char_traitsIcESaIcEEixEm(ptr noundef nonnull align 8 dereferenceable(32) %encs, i64 noundef %conv10)
          to label %invoke.cont21 unwind label %lpad8.loopexit

invoke.cont21:                                    ; preds = %if.else
  %3 = load i8, ptr %call22, align 1
  %call24 = invoke noundef nonnull align 8 dereferenceable(8) ptr @_ZStlsISt11char_traitsIcEERSt13basic_ostreamIcT_ES5_c(ptr noundef nonnull align 8 dereferenceable(8) %buffer, i8 noundef signext %3)
          to label %for.inc unwind label %lpad8.loopexit

for.inc:                                          ; preds = %if.then17, %invoke.cont21
  %inc = add i32 %i.09, 1
  %conv = zext i32 %inc to i64
  %call11 = call noundef i64 @_ZNKSt7__cxx1112basic_stringIcSt11char_traitsIcESaIcEE6lengthEv(ptr noundef nonnull align 8 dereferenceable(32) %encs) #19
  %cmp = icmp ugt i64 %call11, %conv
  br i1 %cmp, label %for.body, label %for.end, !llvm.loop !56

for.end:                                          ; preds = %for.inc, %for.cond.preheader
  %call27 = invoke noundef nonnull align 8 dereferenceable(8) ptr @_ZStlsISt11char_traitsIcEERSt13basic_ostreamIcT_ES5_c(ptr noundef nonnull align 8 dereferenceable(8) %buffer, i8 noundef signext 34)
          to label %invoke.cont26 unwind label %lpad8.loopexit.split-lp

invoke.cont26:                                    ; preds = %for.end
  %vtable28 = load ptr, ptr %this, align 8
  %vfn29 = getelementptr inbounds i8, ptr %vtable28, i64 16
  %4 = load ptr, ptr %vfn29, align 8
  %call31 = invoke noundef nonnull align 8 dereferenceable(976) ptr %4(ptr noundef nonnull align 8 dereferenceable(56) %this)
          to label %invoke.cont30 unwind label %lpad8.loopexit.split-lp

invoke.cont30:                                    ; preds = %invoke.cont26
  invoke void @_ZNKSt7__cxx1119basic_ostringstreamIcSt11char_traitsIcESaIcEE3strEv(ptr nonnull sret(%"class.std::__cxx11::basic_string") align 8 %ref.tmp32, ptr noundef nonnull align 8 dereferenceable(112) %buffer)
          to label %invoke.cont33 unwind label %lpad8.loopexit.split-lp

invoke.cont33:                                    ; preds = %invoke.cont30
  %call.i = call noundef ptr @_ZNKSt7__cxx1112basic_stringIcSt11char_traitsIcESaIcEE5c_strEv(ptr noundef nonnull align 8 dereferenceable(32) %ref.tmp32) #19
  %call1.i6 = invoke noundef ptr @_ZN9format_ns9mk_stringER11ast_managerPKc(ptr noundef nonnull align 8 dereferenceable(976) %call31, ptr noundef %call.i)
          to label %invoke.cont35 unwind label %lpad34

invoke.cont35:                                    ; preds = %invoke.cont33
  call void @_ZNSt7__cxx1112basic_stringIcSt11char_traitsIcESaIcEED1Ev(ptr noundef nonnull align 8 dereferenceable(32) %ref.tmp32) #19
  call void @_ZNSt7__cxx1119basic_ostringstreamIcSt11char_traitsIcESaIcEED1Ev(ptr noundef nonnull align 8 dereferenceable(112) %buffer) #19
  call void @_ZNSt7__cxx1112basic_stringIcSt11char_traitsIcESaIcEED1Ev(ptr noundef nonnull align 8 dereferenceable(32) %encs) #19
  %5 = load ptr, ptr %s, align 8
  %cmp.not.i.i.i.i = icmp eq ptr %5, %m_initial_buffer.i.i
  %cmp.i.i.i.i.i = icmp eq ptr %5, null
  %or.cond.i.i.i.i = or i1 %cmp.not.i.i.i.i, %cmp.i.i.i.i.i
  br i1 %or.cond.i.i.i.i, label %_ZN7zstringD2Ev.exit, label %if.end.i.i.i.i.i

if.end.i.i.i.i.i:                                 ; preds = %invoke.cont35
  invoke void @_ZN6memory10deallocateEPv(ptr noundef nonnull %5)
          to label %_ZN7zstringD2Ev.exit unwind label %terminate.lpad.i.i

terminate.lpad.i.i:                               ; preds = %if.end.i.i.i.i.i
  %6 = landingpad { ptr, i32 }
          catch ptr null
  %7 = extractvalue { ptr, i32 } %6, 0
  call void @__clang_call_terminate(ptr %7) #22
  unreachable

_ZN7zstringD2Ev.exit:                             ; preds = %invoke.cont35, %if.end.i.i.i.i.i
  ret ptr %call1.i6

lpad34:                                           ; preds = %invoke.cont33
  %8 = landingpad { ptr, i32 }
          cleanup
  call void @_ZNSt7__cxx1112basic_stringIcSt11char_traitsIcESaIcEED1Ev(ptr noundef nonnull align 8 dereferenceable(32) %ref.tmp32) #19
  br label %ehcleanup

ehcleanup:                                        ; preds = %lpad8.loopexit, %lpad8.loopexit.split-lp, %lpad34
  %.pn = phi { ptr, i32 } [ %8, %lpad34 ], [ %lpad.loopexit, %lpad8.loopexit ], [ %lpad.loopexit.split-lp, %lpad8.loopexit.split-lp ]
  call void @_ZNSt7__cxx1119basic_ostringstreamIcSt11char_traitsIcESaIcEED1Ev(ptr noundef nonnull align 8 dereferenceable(112) %buffer) #19
  br label %ehcleanup37

ehcleanup37:                                      ; preds = %ehcleanup, %lpad
  %.pn.pn = phi { ptr, i32 } [ %.pn, %ehcleanup ], [ %1, %lpad ]
  call void @_ZNSt7__cxx1112basic_stringIcSt11char_traitsIcESaIcEED1Ev(ptr noundef nonnull align 8 dereferenceable(32) %encs) #19
  call void @_ZN7zstringD2Ev(ptr noundef nonnull align 8 dereferenceable(80) %s) #19
  resume { ptr, i32 } %.pn.pn
}